Certificate:
    Data:
        Version: 3 (0x2)
        Serial Number: 77 (0x4d)
        Signature Algorithm: sha256WithRSAEncryption
        Issuer: C=PL, ST=Woj. Mazowieckie, O=((OTRS)) Community Edition, OU=Development, CN=Test CA Intermediate 2/emailAddress=development@otrscommunityedition.com
        Validity
            Not Before: May 15 15:18:46 2022 GMT
            Not After : May 12 15:18:46 2032 GMT
        Subject: C=PL, ST=Woj. Mazowieckie, O=((OTRS)) Community Edition, OU=Development, CN=User 3/emailAddress=test-3@otrscommunityedition.com
        Subject Public Key Info:
            Public Key Algorithm: rsaEncryption
                RSA Public-Key: (4096 bit)
                Modulus:
                    00:ba:3a:90:a8:b0:82:09:dd:96:b2:77:9d:82:29:
                    0b:50:86:c1:8a:dc:d3:4d:0a:9e:71:f4:fc:a4:6c:
                    06:67:62:70:8b:34:4c:8b:6a:3c:7f:ba:21:20:a8:
                    bd:53:45:23:85:bc:a9:2e:d8:52:ac:fc:2f:44:30:
                    93:c7:18:85:cd:9e:29:13:65:80:b9:6f:e9:b3:ea:
                    f9:dc:5a:62:0f:82:8e:d7:a8:32:c7:40:9c:cf:ae:
                    74:7f:c6:89:54:39:69:09:e7:ce:cd:25:e6:11:66:
                    da:dc:ef:ae:f7:f2:8c:b2:b8:ac:1e:d7:73:87:f9:
                    23:f8:88:66:13:0c:3c:01:87:08:4c:c3:42:f6:0c:
                    3b:7d:9d:d6:36:1c:f1:6d:66:43:2f:58:68:fa:b9:
                    c6:7f:ab:36:d5:7b:8f:ec:44:35:66:b2:1b:2a:2e:
                    26:92:09:3a:cf:22:93:38:d2:87:7e:2a:80:68:dd:
                    54:f4:b7:e1:3f:13:88:95:85:fb:b0:26:24:b1:e1:
                    82:03:7c:54:60:7e:30:2b:3a:ea:1f:13:ae:e8:8b:
                    44:70:8e:6c:63:9b:14:ca:18:33:71:00:93:a8:49:
                    8d:c1:29:a1:5c:6d:2d:a2:1b:83:03:94:9a:ad:5a:
                    04:dc:dc:0f:80:ef:72:b2:77:ac:9f:37:2a:53:c6:
                    8c:0f:ca:84:73:cc:91:e8:d7:eb:56:48:07:53:64:
                    40:1c:03:92:dd:a9:71:1f:0a:df:a2:73:a0:1c:b1:
                    49:cb:0f:23:ae:77:1b:8a:01:b2:93:4f:6a:20:70:
                    70:79:49:90:e4:17:af:a0:5c:07:e7:b4:4d:35:6a:
                    85:f1:2c:9e:68:98:1f:0d:53:2d:e0:ea:01:3e:45:
                    f4:1e:46:ea:fb:65:2c:1c:e2:ab:dd:79:f2:24:d2:
                    43:a9:9f:82:51:39:04:59:bf:c9:4c:e2:cb:6f:83:
                    65:93:75:51:20:0c:e7:fd:3e:e7:68:db:a3:6f:7c:
                    bd:c2:53:c5:8d:76:7b:c5:ad:a5:6c:2c:0a:4e:bf:
                    f3:19:0d:0b:83:11:31:6d:2e:3d:52:9e:e9:f1:cc:
                    34:93:31:02:40:1f:c2:b3:e9:ea:6c:30:a6:a4:13:
                    f7:af:6a:8d:f3:e7:86:a8:5a:78:30:91:df:05:81:
                    29:6d:12:a2:44:24:bf:c4:b1:d3:e1:ff:0a:30:87:
                    ad:6b:d4:62:94:74:79:59:fb:bf:6d:e8:8e:8f:f1:
                    59:93:74:61:fd:84:80:9e:6a:fa:f8:f1:56:69:73:
                    cd:54:2a:c4:c3:24:36:72:cb:99:65:32:82:93:52:
                    0d:2b:72:ab:e4:f3:c0:7a:39:77:d1:be:c9:85:ef:
                    f0:f5:59
                Exponent: 65537 (0x10001)
        X509v3 extensions:
            X509v3 Basic Constraints: critical
                CA:TRUE
            X509v3 Subject Key Identifier: 
                36:B1:45:BF:D3:B7:E6:1F:F9:B7:36:5E:5E:32:DD:B3:FE:73:D4:37
            X509v3 Authority Key Identifier: 
                keyid:88:1B:16:D2:11:42:5F:A1:9B:3A:C7:36:3C:14:81:10:0D:DE:83:99
                DirName:/C=PL/ST=Woj. Mazowieckie/O=((OTRS)) Community Edition/OU=Development/CN=Test CA Intermediate 1/emailAddress=development@otrscommunityedition.com
                serial:1E

    Signature Algorithm: sha256WithRSAEncryption
         60:98:50:4c:5d:dd:71:83:c3:3f:f1:a1:73:a3:2b:5d:c5:26:
         29:06:50:25:8e:d6:be:b7:28:0c:7a:ae:45:55:45:f5:5c:cc:
         a8:0a:60:9e:b4:9b:c4:7d:27:a8:dd:7d:ae:5a:6f:be:c1:fc:
         de:59:b5:ce:1b:86:00:2a:1b:31:1d:2e:f4:a4:8d:ac:e6:b2:
         aa:8e:0e:3a:c6:49:f2:c1:1c:3d:43:48:8d:c3:35:61:be:44:
         ec:92:a4:b2:cb:83:e0:dd:2d:c6:5f:eb:74:95:14:65:bf:7b:
         9d:eb:87:10:d2:a1:84:63:5e:21:4c:a2:0e:86:37:54:85:7a:
         db:23:56:ce:1c:2d:9d:cc:0b:b9:62:ba:c1:45:66:15:72:70:
         95:b3:70:71:ef:d9:9f:93:31:7b:4c:aa:0b:77:e2:4a:e5:5d:
         24:e8:85:21:8b:bb:78:3e:9a:4c:48:94:be:03:e8:a9:3e:8b:
         6a:17:12:80:67:b6:4b:b4:d3:df:1c:46:ee:61:41:f5:5e:41:
         2d:4d:a0:ac:3f:38:c7:39:ed:df:4c:b5:e1:3e:31:c8:bb:ad:
         ca:3e:68:35:c8:a9:a9:4b:9b:cb:6e:15:f6:04:5f:e8:ca:1e:
         fe:81:2d:bb:8a:d7:be:38:95:4e:c0:98:62:c8:05:c4:e8:43:
         9f:6e:dc:66:16:3d:54:dc:a8:e1:b0:d2:77:ac:d9:b6:60:0b:
         c0:c9:9c:90:52:3e:a4:ea:bc:66:ce:fc:47:f0:48:12:32:d0:
         00:18:91:67:f0:6e:aa:ef:db:ff:8f:35:8d:4a:86:ac:ee:02:
         5c:1c:47:74:65:62:c1:c8:29:e4:56:b5:71:30:e5:b9:7b:94:
         25:32:5c:73:92:82:af:84:fa:54:e9:c7:ab:3a:13:af:03:cd:
         ad:21:53:de:0f:03:fd:a4:2f:bf:e6:98:22:37:f7:1b:7a:34:
         65:94:ac:93:83:22:4d:a7:28:38:bf:12:64:61:68:50:33:10:
         82:0a:85:bf:e5:39:b9:83:68:cb:29:ae:a7:10:cf:f0:16:28:
         a1:10:03:30:b8:1a:8b:22:d3:0a:2b:ca:19:b4:a4:f3:96:de:
         72:e6:28:ea:40:67:c7:80:94:b7:67:72:d8:04:9c:70:13:2e:
         0f:59:ae:d1:6a:e6:c7:5c:13:4c:b6:1c:69:d3:7f:8c:dd:55:
         06:be:d1:2c:9a:31:01:3b:5f:d4:63:6e:cf:bd:10:9c:89:eb:
         6a:49:f2:15:2c:1d:b7:28:4a:71:87:53:e2:96:72:8f:e8:8c:
         3a:3c:67:77:03:ae:e7:78:e7:05:2b:4c:66:d8:39:6f:c2:98:
         14:e8:d7:36:4d:79:71:7e
-----BEGIN CERTIFICATE-----
MIIG+TCCBOGgAwIBAgIBTTANBgkqhkiG9w0BAQsFADCBuTELMAkGA1UEBhMCUEwx
GTAXBgNVBAgMEFdvai4gTWF6b3dpZWNraWUxIzAhBgNVBAoMGigoT1RSUykpIENv
bW11bml0eSBFZGl0aW9uMRQwEgYDVQQLDAtEZXZlbG9wbWVudDEfMB0GA1UEAwwW
VGVzdCBDQSBJbnRlcm1lZGlhdGUgMjEzMDEGCSqGSIb3DQEJARYkZGV2ZWxvcG1l
bnRAb3Ryc2NvbW11bml0eWVkaXRpb24uY29tMB4XDTIyMDUxNTE1MTg0NloXDTMy
MDUxMjE1MTg0NlowgaQxCzAJBgNVBAYTAlBMMRkwFwYDVQQIDBBXb2ouIE1hem93
aWVja2llMSMwIQYDVQQKDBooKE9UUlMpKSBDb21tdW5pdHkgRWRpdGlvbjEUMBIG
A1UECwwLRGV2ZWxvcG1lbnQxDzANBgNVBAMMBlVzZXIgMzEuMCwGCSqGSIb3DQEJ
ARYfdGVzdC0zQG90cnNjb21tdW5pdHllZGl0aW9uLmNvbTCCAiIwDQYJKoZIhvcN
AQEBBQADggIPADCCAgoCggIBALo6kKiwggndlrJ3nYIpC1CGwYrc000KnnH0/KRs
BmdicIs0TItqPH+6ISCovVNFI4W8qS7YUqz8L0Qwk8cYhc2eKRNlgLlv6bPq+dxa
Yg+CjteoMsdAnM+udH/GiVQ5aQnnzs0l5hFm2tzvrvfyjLK4rB7Xc4f5I/iIZhMM
PAGHCEzDQvYMO32d1jYc8W1mQy9YaPq5xn+rNtV7j+xENWayGyouJpIJOs8ikzjS
h34qgGjdVPS34T8TiJWF+7AmJLHhggN8VGB+MCs66h8TruiLRHCObGObFMoYM3EA
k6hJjcEpoVxtLaIbgwOUmq1aBNzcD4DvcrJ3rJ83KlPGjA/KhHPMkejX61ZIB1Nk
QBwDkt2pcR8K36JzoByxScsPI653G4oBspNPaiBwcHlJkOQXr6BcB+e0TTVqhfEs
nmiYHw1TLeDqAT5F9B5G6vtlLBziq9158iTSQ6mfglE5BFm/yUziy2+DZZN1USAM
5/0+52jbo298vcJTxY12e8WtpWwsCk6/8xkNC4MRMW0uPVKe6fHMNJMxAkAfwrPp
6mwwpqQT969qjfPnhqhaeDCR3wWBKW0SokQkv8Sx0+H/CjCHrWvUYpR0eVn7v23o
jo/xWZN0Yf2EgJ5q+vjxVmlzzVQqxMMkNnLLmWUygpNSDStyq+TzwHo5d9G+yYXv
8PVZAgMBAAGjggEdMIIBGTAPBgNVHRMBAf8EBTADAQH/MB0GA1UdDgQWBBQ2sUW/
07fmH/m3Nl5eMt2z/nPUNzCB5gYDVR0jBIHeMIHbgBSIGxbSEUJfoZs6xzY8FIEQ
Dd6DmaGBv6SBvDCBuTELMAkGA1UEBhMCUEwxGTAXBgNVBAgMEFdvai4gTWF6b3dp
ZWNraWUxIzAhBgNVBAoMGigoT1RSUykpIENvbW11bml0eSBFZGl0aW9uMRQwEgYD
VQQLDAtEZXZlbG9wbWVudDEfMB0GA1UEAwwWVGVzdCBDQSBJbnRlcm1lZGlhdGUg
MTEzMDEGCSqGSIb3DQEJARYkZGV2ZWxvcG1lbnRAb3Ryc2NvbW11bml0eWVkaXRp
b24uY29tggEeMA0GCSqGSIb3DQEBCwUAA4ICAQBgmFBMXd1xg8M/8aFzoytdxSYp
BlAljta+tygMeq5FVUX1XMyoCmCetJvEfSeo3X2uWm++wfzeWbXOG4YAKhsxHS70
pI2s5rKqjg46xknywRw9Q0iNwzVhvkTskqSyy4Pg3S3GX+t0lRRlv3ud64cQ0qGE
Y14hTKIOhjdUhXrbI1bOHC2dzAu5YrrBRWYVcnCVs3Bx79mfkzF7TKoLd+JK5V0k
6IUhi7t4PppMSJS+A+ipPotqFxKAZ7ZLtNPfHEbuYUH1XkEtTaCsPzjHOe3fTLXh
PjHIu63KPmg1yKmpS5vLbhX2BF/oyh7+gS27ite+OJVOwJhiyAXE6EOfbtxmFj1U
3KjhsNJ3rNm2YAvAyZyQUj6k6rxmzvxH8EgSMtAAGJFn8G6q79v/jzWNSoas7gJc
HEd0ZWLByCnkVrVxMOW5e5QlMlxzkoKvhPpU6cerOhOvA82tIVPeDwP9pC+/5pgi
N/cbejRllKyTgyJNpyg4vxJkYWhQMxCCCoW/5Tm5g2jLKa6nEM/wFiihEAMwuBqL
ItMKK8oZtKTzlt5y5ijqQGfHgJS3Z3LYBJxwEy4PWa7RaubHXBNMthxp03+M3VUG
vtEsmjEBO1/UY27PvRCcietqSfIVLB23KEpxh1PilnKP6Iw6PGd3A67neOcFK0xm
2DlvwpgU6Nc2TXlxfg==
-----END CERTIFICATE-----
