Certificate:
    Data:
        Version: 3 (0x2)
        Serial Number: 30 (0x1e)
        Signature Algorithm: sha256WithRSAEncryption
        Issuer: C=PL, ST=Woj. Mazowieckie, O=((OTRS)) Community Edition, OU=Development, CN=Test CA Intermediate 1/emailAddress=development@otrscommunityedition.com
        Validity
            Not Before: May 15 15:18:45 2022 GMT
            Not After : May 12 15:18:45 2032 GMT
        Subject: C=PL, ST=Woj. Mazowieckie, O=((OTRS)) Community Edition, OU=Development, CN=Test CA Intermediate 2/emailAddress=development@otrscommunityedition.com
        Subject Public Key Info:
            Public Key Algorithm: rsaEncryption
                RSA Public-Key: (4096 bit)
                Modulus:
                    00:ce:d5:a7:1b:2c:42:2a:ac:fa:c9:fe:52:bf:99:
                    40:31:b7:2b:47:8f:30:ef:7b:c0:f7:b2:63:81:64:
                    de:c5:ee:ab:60:51:85:0c:17:ed:a5:1a:69:8f:e2:
                    da:dd:01:d9:aa:04:2d:9d:44:36:50:9d:68:ff:5d:
                    5e:a5:3f:a9:40:89:ca:46:16:16:4f:57:0b:6b:a8:
                    9a:91:2c:57:58:62:19:1f:d0:39:fc:ad:48:81:57:
                    9a:c8:e4:ba:19:e1:95:0d:f0:21:ee:cf:f7:93:e9:
                    04:4b:5d:78:0d:ae:ad:32:b1:fe:0e:ab:3c:28:2e:
                    f6:ee:81:fc:14:84:00:ad:3c:34:95:29:0a:af:71:
                    cf:43:f3:9d:fd:23:a1:2e:54:5f:58:81:10:25:56:
                    8c:c6:03:2d:a2:e0:fa:a5:cd:58:7f:89:4a:0e:e7:
                    85:f5:e4:b9:17:ee:77:c2:e8:96:81:db:73:ef:75:
                    cb:61:f1:c7:79:35:6c:c5:d5:a3:bb:5b:f8:f6:63:
                    6a:3b:2e:35:6f:af:ce:0f:34:5a:00:34:8b:1c:b2:
                    93:ed:9f:a8:bd:53:13:ed:4a:37:59:26:ff:e1:be:
                    cd:92:71:ac:d1:7b:ba:4d:6f:ea:8e:ed:44:e5:1d:
                    58:dd:53:06:01:4c:8b:ec:a6:ce:3e:c3:5b:03:ca:
                    34:c4:0f:eb:8f:67:56:85:41:1d:8d:da:e2:df:2d:
                    28:3d:af:08:20:74:71:44:a2:93:2b:b7:5e:21:38:
                    01:d5:09:20:d8:8f:c5:9f:a4:41:f2:d5:76:34:e8:
                    d4:0f:9e:13:46:53:c6:32:d1:0e:fb:8c:4a:7d:62:
                    17:24:4b:fc:5e:8d:9c:e1:a7:0c:23:22:0a:4e:a5:
                    14:9e:6a:fd:2e:95:d5:33:4d:ee:2e:4b:67:25:de:
                    5f:1f:e2:1b:b8:c0:9b:4d:47:45:6d:18:21:fe:73:
                    4d:40:b7:aa:c0:cc:ee:09:02:ea:09:65:b6:e3:7b:
                    09:4d:d7:b4:2a:82:1d:fc:31:fe:5b:6b:ea:d8:aa:
                    25:90:6c:17:d2:3e:7d:97:de:99:37:54:ff:33:65:
                    9a:08:52:8e:4a:d9:3c:ec:5e:ec:b4:a9:f1:cc:7c:
                    8e:2d:20:ef:d3:2a:71:ed:73:3b:23:51:2e:3e:77:
                    7f:a1:39:36:fc:ba:5b:9e:f0:9f:31:5b:14:6a:45:
                    62:03:7f:6f:53:26:23:84:66:b8:21:e8:27:de:68:
                    f8:ed:ac:b4:f4:d2:90:6d:6a:8d:a8:a9:4d:d5:f1:
                    97:95:03:85:94:f9:75:8e:30:9f:f0:04:27:ce:9f:
                    7f:32:1c:b2:3f:20:e5:d5:fa:6f:63:d2:58:4d:fb:
                    e0:0a:d5
                Exponent: 65537 (0x10001)
        X509v3 extensions:
            X509v3 Basic Constraints: critical
                CA:TRUE
            X509v3 Subject Key Identifier: 
                88:1B:16:D2:11:42:5F:A1:9B:3A:C7:36:3C:14:81:10:0D:DE:83:99
            X509v3 Authority Key Identifier: 
                keyid:CE:F5:5D:6E:85:B9:AF:89:2A:A4:BC:11:4A:13:62:48:5D:FB:34:AA
                DirName:/C=PL/ST=Woj. Mazowieckie/L=Warsaw/O=((OTRS)) Community Edition/OU=Development/CN=Test CA Root/emailAddress=development@otrscommunityedition.com
                serial:26

    Signature Algorithm: sha256WithRSAEncryption
         2b:9c:57:74:64:9b:26:dc:fa:4f:7e:33:c2:ac:03:db:90:06:
         a1:c1:47:55:3c:ea:ae:6b:9b:22:4f:1c:49:17:7c:12:7f:b3:
         3e:1b:b7:14:ef:ae:22:a1:d4:1c:a0:72:cb:8a:7e:2e:02:b9:
         99:b2:51:9b:c0:0d:ad:35:d4:86:ac:42:99:b3:f4:d3:3c:76:
         df:50:04:9f:3a:d7:20:e3:41:3a:f5:dd:d0:4c:43:ae:7f:7f:
         a4:08:72:5d:16:7a:3a:6f:6a:db:84:fa:24:74:d4:ac:47:e6:
         c1:07:e5:6c:ee:ea:4c:54:62:33:de:16:71:67:e7:e8:59:30:
         05:34:2d:93:57:b3:93:31:87:6c:5e:b4:25:a6:79:7a:26:cf:
         65:f2:0b:34:26:4f:1b:4d:d1:d5:07:d7:17:18:11:41:0c:34:
         97:48:a8:16:55:78:ac:2a:fe:83:7d:82:57:2c:f2:a3:e1:35:
         f3:ee:11:f1:70:23:f4:ad:8d:b3:dc:f3:8d:f2:b2:7f:86:af:
         95:63:7a:40:75:8e:65:2b:a9:ef:67:d7:94:50:dc:42:09:df:
         88:b9:97:34:ee:00:0b:21:f8:90:aa:9f:29:14:f9:3d:88:67:
         0d:02:6e:58:ed:b5:c1:be:bf:94:fc:0f:2e:45:f7:fd:bb:64:
         40:25:5d:7d:34:4c:d7:45:24:92:c7:a1:e2:86:76:3d:38:76:
         43:c3:41:40:fe:7c:37:11:a5:8b:db:33:df:2f:f1:61:c7:00:
         bc:f5:5e:80:73:05:e0:4b:d9:75:0d:9d:2f:53:0f:87:4f:69:
         28:d2:5f:f9:38:8e:a2:fd:ec:71:2b:4b:7a:71:42:1c:2c:7a:
         b9:b5:83:c8:30:02:54:69:cd:23:9b:2d:f3:32:36:4e:39:cd:
         5c:38:f4:5b:bb:44:71:12:34:f9:c6:b8:86:70:b6:20:8f:24:
         c6:46:ec:98:cc:a5:88:56:42:4c:f1:86:a6:39:22:14:1a:07:
         a4:ac:fe:6c:62:9c:7d:9a:31:8f:f4:f9:28:af:cf:09:de:e3:
         3d:63:32:16:14:76:37:f6:39:e1:0e:2f:f6:af:7c:29:4a:60:
         de:46:95:16:61:5e:51:8c:a0:e0:9c:6b:09:a4:16:19:c4:c6:
         2d:a1:bb:f3:28:79:02:70:13:ec:3f:1d:75:88:1a:83:6b:8a:
         39:89:42:d5:16:ea:26:0f:7d:43:33:fb:02:69:20:08:1a:47:
         ee:e5:98:93:98:94:70:69:9c:97:e7:c9:73:a4:70:1b:3d:ff:
         17:a6:74:00:23:ca:d8:f4:44:97:87:89:1d:dc:17:b5:e5:ee:
         bd:f2:aa:0c:4a:20:71:e2
-----BEGIN CERTIFICATE-----
MIIHFTCCBP2gAwIBAgIBHjANBgkqhkiG9w0BAQsFADCBuTELMAkGA1UEBhMCUEwx
GTAXBgNVBAgMEFdvai4gTWF6b3dpZWNraWUxIzAhBgNVBAoMGigoT1RSUykpIENv
bW11bml0eSBFZGl0aW9uMRQwEgYDVQQLDAtEZXZlbG9wbWVudDEfMB0GA1UEAwwW
VGVzdCBDQSBJbnRlcm1lZGlhdGUgMTEzMDEGCSqGSIb3DQEJARYkZGV2ZWxvcG1l
bnRAb3Ryc2NvbW11bml0eWVkaXRpb24uY29tMB4XDTIyMDUxNTE1MTg0NVoXDTMy
MDUxMjE1MTg0NVowgbkxCzAJBgNVBAYTAlBMMRkwFwYDVQQIDBBXb2ouIE1hem93
aWVja2llMSMwIQYDVQQKDBooKE9UUlMpKSBDb21tdW5pdHkgRWRpdGlvbjEUMBIG
A1UECwwLRGV2ZWxvcG1lbnQxHzAdBgNVBAMMFlRlc3QgQ0EgSW50ZXJtZWRpYXRl
IDIxMzAxBgkqhkiG9w0BCQEWJGRldmVsb3BtZW50QG90cnNjb21tdW5pdHllZGl0
aW9uLmNvbTCCAiIwDQYJKoZIhvcNAQEBBQADggIPADCCAgoCggIBAM7VpxssQiqs
+sn+Ur+ZQDG3K0ePMO97wPeyY4Fk3sXuq2BRhQwX7aUaaY/i2t0B2aoELZ1ENlCd
aP9dXqU/qUCJykYWFk9XC2uompEsV1hiGR/QOfytSIFXmsjkuhnhlQ3wIe7P95Pp
BEtdeA2urTKx/g6rPCgu9u6B/BSEAK08NJUpCq9xz0Pznf0joS5UX1iBECVWjMYD
LaLg+qXNWH+JSg7nhfXkuRfud8LoloHbc+91y2Hxx3k1bMXVo7tb+PZjajsuNW+v
zg80WgA0ixyyk+2fqL1TE+1KN1km/+G+zZJxrNF7uk1v6o7tROUdWN1TBgFMi+ym
zj7DWwPKNMQP649nVoVBHY3a4t8tKD2vCCB0cUSikyu3XiE4AdUJINiPxZ+kQfLV
djTo1A+eE0ZTxjLRDvuMSn1iFyRL/F6NnOGnDCMiCk6lFJ5q/S6V1TNN7i5LZyXe
Xx/iG7jAm01HRW0YIf5zTUC3qsDM7gkC6glltuN7CU3XtCqCHfwx/ltr6tiqJZBs
F9I+fZfemTdU/zNlmghSjkrZPOxe7LSp8cx8ji0g79Mqce1zOyNRLj53f6E5Nvy6
W57wnzFbFGpFYgN/b1MmI4RmuCHoJ95o+O2stPTSkG1qjaipTdXxl5UDhZT5dY4w
n/AEJ86ffzIcsj8g5dX6b2PSWE374ArVAgMBAAGjggEkMIIBIDAPBgNVHRMBAf8E
BTADAQH/MB0GA1UdDgQWBBSIGxbSEUJfoZs6xzY8FIEQDd6DmTCB7QYDVR0jBIHl
MIHigBTO9V1uhbmviSqkvBFKE2JIXfs0qqGBxqSBwzCBwDELMAkGA1UEBhMCUEwx
GTAXBgNVBAgMEFdvai4gTWF6b3dpZWNraWUxDzANBgNVBAcMBldhcnNhdzEjMCEG
A1UECgwaKChPVFJTKSkgQ29tbXVuaXR5IEVkaXRpb24xFDASBgNVBAsMC0RldmVs
b3BtZW50MRUwEwYDVQQDDAxUZXN0IENBIFJvb3QxMzAxBgkqhkiG9w0BCQEWJGRl
dmVsb3BtZW50QG90cnNjb21tdW5pdHllZGl0aW9uLmNvbYIBJjANBgkqhkiG9w0B
AQsFAAOCAgEAK5xXdGSbJtz6T34zwqwD25AGocFHVTzqrmubIk8cSRd8En+zPhu3
FO+uIqHUHKByy4p+LgK5mbJRm8ANrTXUhqxCmbP00zx231AEnzrXIONBOvXd0ExD
rn9/pAhyXRZ6Om9q24T6JHTUrEfmwQflbO7qTFRiM94WcWfn6FkwBTQtk1ezkzGH
bF60JaZ5eibPZfILNCZPG03R1QfXFxgRQQw0l0ioFlV4rCr+g32CVyzyo+E18+4R
8XAj9K2Ns9zzjfKyf4avlWN6QHWOZSup72fXlFDcQgnfiLmXNO4ACyH4kKqfKRT5
PYhnDQJuWO21wb6/lPwPLkX3/btkQCVdfTRM10Ukkseh4oZ2PTh2Q8NBQP58NxGl
i9sz3y/xYccAvPVegHMF4EvZdQ2dL1MPh09pKNJf+TiOov3scStLenFCHCx6ubWD
yDACVGnNI5st8zI2TjnNXDj0W7tEcRI0+ca4hnC2II8kxkbsmMyliFZCTPGGpjki
FBoHpKz+bGKcfZoxj/T5KK/PCd7jPWMyFhR2N/Y54Q4v9q98KUpg3kaVFmFeUYyg
4JxrCaQWGcTGLaG78yh5AnAT7D8ddYgag2uKOYlC1RbqJg99QzP7AmkgCBpH7uWY
k5iUcGmcl+fJc6RwGz3/F6Z0ACPK2PREl4eJHdwXteXuvfKqDEogceI=
-----END CERTIFICATE-----
