Certificate:
    Data:
        Version: 3 (0x2)
        Serial Number:
            4d:0a:6a:c3:21:d1:8f:cc:79:45:a9:22:79:d4:56:df:40:5e:88:82
        Signature Algorithm: sha256WithRSAEncryption
        Issuer: C = PL, ST = Woj. Mazowieckie, L = Warsaw, O = ((OTRS)) Community Edition, OU = Development, CN = Test CA Root, emailAddress = development@otrscommunityedition.com
        Validity
            Not Before: May 15 15:18:43 2022 GMT
            Not After : May 12 15:18:43 2032 GMT
        Subject: C = PL, ST = Woj. Mazowieckie, L = Warsaw, O = ((OTRS)) Community Edition, OU = Development, CN = Test CA Root, emailAddress = development@otrscommunityedition.com
        Subject Public Key Info:
            Public Key Algorithm: rsaEncryption
                RSA Public-Key: (4096 bit)
                Modulus:
                    00:c4:aa:5a:74:74:3d:0f:ba:21:d1:a7:9d:cc:f9:
                    a5:ad:11:65:a3:7e:01:bd:79:c9:91:c5:ab:c5:c3:
                    1a:e2:42:49:0c:3c:0c:77:d0:0b:36:d1:5e:76:6d:
                    90:c0:2c:df:76:e4:ec:79:d7:f3:3d:32:8d:17:e8:
                    64:e2:c5:15:52:4f:b1:35:89:b6:35:7a:6a:56:73:
                    9e:c5:17:1f:63:3c:5e:87:47:40:5f:e8:3d:16:a6:
                    f2:d8:cc:a5:ec:6c:bc:4c:1e:96:83:21:af:cf:78:
                    7d:f9:37:9e:d6:5d:b5:4b:42:99:d5:f7:95:70:bd:
                    e6:58:de:13:55:18:6b:f7:41:0d:00:cd:60:d5:0e:
                    88:90:3b:b7:82:22:3a:cf:9e:15:0f:40:8e:4d:43:
                    64:de:76:c4:b5:b5:89:8b:d1:b3:08:83:45:3f:e7:
                    0c:20:b1:69:12:e2:c6:97:7f:40:64:44:af:2d:cf:
                    de:77:39:08:62:26:14:c3:e7:1e:54:6f:3f:fd:d8:
                    3b:57:15:54:dc:b3:6a:2b:6c:09:cb:f7:fe:e2:7e:
                    a1:73:2d:ed:2b:f5:62:68:71:ee:54:a8:c0:c7:05:
                    06:50:de:5e:ce:af:e3:d8:ce:f8:af:b0:84:ed:e1:
                    35:10:89:a9:a8:c4:20:57:8c:73:7e:aa:82:eb:73:
                    5a:0a:e4:fa:74:17:0f:12:cc:52:12:13:12:48:cc:
                    e8:19:4c:9d:bd:8d:3c:1e:b3:14:9e:f6:25:b6:50:
                    46:70:27:e6:c1:31:b2:50:8b:05:4f:be:64:d4:a6:
                    08:3a:6d:4d:36:ab:f3:e0:fd:e9:e9:d3:b2:6b:88:
                    b4:78:35:28:6c:58:ab:c9:b9:c7:b0:78:e2:07:89:
                    d6:06:a1:17:09:e8:f9:1c:45:07:10:45:d1:eb:10:
                    f9:d7:0f:c4:a4:47:84:0c:95:8a:cc:ab:52:af:d7:
                    12:3d:ce:7f:0a:d7:73:88:76:67:12:df:c2:a3:5e:
                    76:8d:45:1e:03:d1:e8:3c:f7:50:5d:00:a1:d6:12:
                    f6:af:3b:b7:6b:2e:97:07:8c:eb:64:de:dd:39:1c:
                    01:41:bc:6c:37:42:16:30:ca:0f:aa:dd:b9:68:84:
                    c9:53:ea:09:a3:64:b9:60:f8:1d:e9:50:b3:e1:75:
                    42:59:6d:9f:92:51:5c:0f:4d:10:0a:96:77:62:bf:
                    c3:0c:82:79:3a:b4:15:e9:8e:a5:9b:ee:6b:02:8d:
                    be:e0:ad:72:a9:99:c0:a1:aa:56:7b:20:c7:55:0b:
                    24:cf:e8:9b:f2:33:ac:cd:11:03:85:56:9e:41:a8:
                    fe:39:9a:87:32:61:40:bf:0d:f7:79:26:34:b3:f5:
                    7b:33:c7
                Exponent: 65537 (0x10001)
        X509v3 extensions:
            X509v3 Subject Key Identifier: 
                0C:B0:B1:31:87:4A:4B:52:7C:C7:97:21:1F:83:4A:8A:98:34:A4:BE
            X509v3 Authority Key Identifier: 
                keyid:0C:B0:B1:31:87:4A:4B:52:7C:C7:97:21:1F:83:4A:8A:98:34:A4:BE

            X509v3 Basic Constraints: critical
                CA:TRUE
    Signature Algorithm: sha256WithRSAEncryption
         b0:a3:f8:b5:0b:08:2a:2e:6e:f4:ca:81:9e:cd:7d:9c:ed:9a:
         dc:37:5e:3a:88:18:22:c1:19:bd:de:7c:ca:61:e3:aa:b9:57:
         21:00:e5:9b:5e:9f:87:f3:30:b5:6d:af:54:a7:e4:be:f9:16:
         8b:aa:af:f6:04:82:21:82:8f:d4:0b:c2:c8:72:02:a0:a5:78:
         53:a2:fe:99:4d:05:15:22:0e:cf:29:e9:d0:82:a6:e1:aa:eb:
         67:a1:11:67:d7:ad:3f:7c:88:e5:25:ad:13:5e:cc:48:fb:52:
         a1:68:44:5a:2f:46:55:0c:51:12:9d:d5:86:fb:d0:88:b4:d8:
         64:47:54:c4:ad:da:e9:35:0e:7f:ad:55:48:56:d9:01:5b:85:
         22:8c:67:c4:b4:78:e1:8c:72:c3:26:62:a1:9a:b6:6b:99:df:
         f7:6b:67:6b:3f:08:0d:d0:04:a4:2f:8c:df:a4:de:df:c9:54:
         66:d6:71:60:10:ad:33:43:ef:6a:87:b6:6d:14:12:bf:f7:46:
         74:57:a8:35:73:87:40:18:cf:f4:6c:47:ce:73:20:4b:d4:95:
         ed:86:4c:ed:11:b7:0d:8b:44:64:13:94:57:fd:e0:1a:33:e7:
         96:df:67:84:67:df:1e:a0:7b:18:ac:82:e6:48:cb:59:10:e9:
         ed:e1:77:81:97:7e:55:af:b6:8d:5b:94:5d:96:47:83:82:56:
         23:df:7a:0f:f8:f2:1c:f1:0a:5e:e5:c5:58:e2:49:33:d2:bb:
         b0:58:6b:90:e1:21:bc:a3:54:9e:3f:d9:07:5c:38:7a:a8:35:
         d7:6b:0a:8f:34:6e:84:2a:cb:1f:b0:c7:27:0b:0e:d5:05:fe:
         7b:c7:05:22:99:90:04:03:ec:e9:8e:77:30:a8:d4:e9:b9:d1:
         9b:50:60:13:9a:88:c2:58:12:50:de:68:db:d6:17:18:be:96:
         16:df:25:2f:64:4a:61:0d:95:52:dd:ea:71:9d:14:da:7f:a1:
         66:c1:40:e2:b8:a5:44:d5:b7:8a:df:20:78:ad:48:8a:8d:7b:
         1c:0e:79:64:1c:ca:98:71:c2:9b:6b:64:4f:9c:9e:89:f2:b9:
         ae:f1:8b:d0:57:b5:62:b0:7b:aa:c4:c2:62:6d:83:a8:f5:99:
         7b:d1:24:1d:94:61:58:13:79:2b:4b:d1:29:9c:72:72:86:16:
         69:a9:55:d8:fa:57:3f:cd:3d:91:d0:ec:79:be:67:ed:cb:1a:
         97:8a:ab:14:be:37:7e:5d:29:e7:e7:37:41:f4:aa:0c:bf:f2:
         ef:e7:52:51:95:5a:b0:43:0e:db:b3:f7:43:61:2f:c1:81:24:
         9e:b8:fd:0b:3d:57:1e:d2
-----BEGIN CERTIFICATE-----
MIIGYzCCBEugAwIBAgIUTQpqwyHRj8x5RakiedRW30BeiIIwDQYJKoZIhvcNAQEL
BQAwgcAxCzAJBgNVBAYTAlBMMRkwFwYDVQQIDBBXb2ouIE1hem93aWVja2llMQ8w
DQYDVQQHDAZXYXJzYXcxIzAhBgNVBAoMGigoT1RSUykpIENvbW11bml0eSBFZGl0
aW9uMRQwEgYDVQQLDAtEZXZlbG9wbWVudDEVMBMGA1UEAwwMVGVzdCBDQSBSb290
MTMwMQYJKoZIhvcNAQkBFiRkZXZlbG9wbWVudEBvdHJzY29tbXVuaXR5ZWRpdGlv
bi5jb20wHhcNMjIwNTE1MTUxODQzWhcNMzIwNTEyMTUxODQzWjCBwDELMAkGA1UE
BhMCUEwxGTAXBgNVBAgMEFdvai4gTWF6b3dpZWNraWUxDzANBgNVBAcMBldhcnNh
dzEjMCEGA1UECgwaKChPVFJTKSkgQ29tbXVuaXR5IEVkaXRpb24xFDASBgNVBAsM
C0RldmVsb3BtZW50MRUwEwYDVQQDDAxUZXN0IENBIFJvb3QxMzAxBgkqhkiG9w0B
CQEWJGRldmVsb3BtZW50QG90cnNjb21tdW5pdHllZGl0aW9uLmNvbTCCAiIwDQYJ
KoZIhvcNAQEBBQADggIPADCCAgoCggIBAMSqWnR0PQ+6IdGnncz5pa0RZaN+Ab15
yZHFq8XDGuJCSQw8DHfQCzbRXnZtkMAs33bk7HnX8z0yjRfoZOLFFVJPsTWJtjV6
alZznsUXH2M8XodHQF/oPRam8tjMpexsvEweloMhr894ffk3ntZdtUtCmdX3lXC9
5ljeE1UYa/dBDQDNYNUOiJA7t4IiOs+eFQ9Ajk1DZN52xLW1iYvRswiDRT/nDCCx
aRLixpd/QGREry3P3nc5CGImFMPnHlRvP/3YO1cVVNyzaitsCcv3/uJ+oXMt7Sv1
Ymhx7lSowMcFBlDeXs6v49jO+K+whO3hNRCJqajEIFeMc36qgutzWgrk+nQXDxLM
UhITEkjM6BlMnb2NPB6zFJ72JbZQRnAn5sExslCLBU++ZNSmCDptTTar8+D96enT
smuItHg1KGxYq8m5x7B44geJ1gahFwno+RxFBxBF0esQ+dcPxKRHhAyVisyrUq/X
Ej3OfwrXc4h2ZxLfwqNedo1FHgPR6Dz3UF0AodYS9q87t2sulweM62Te3TkcAUG8
bDdCFjDKD6rduWiEyVPqCaNkuWD4HelQs+F1Qlltn5JRXA9NEAqWd2K/wwyCeTq0
FemOpZvuawKNvuCtcqmZwKGqVnsgx1ULJM/om/IzrM0RA4VWnkGo/jmahzJhQL8N
93kmNLP1ezPHAgMBAAGjUzBRMB0GA1UdDgQWBBQMsLExh0pLUnzHlyEfg0qKmDSk
vjAfBgNVHSMEGDAWgBQMsLExh0pLUnzHlyEfg0qKmDSkvjAPBgNVHRMBAf8EBTAD
AQH/MA0GCSqGSIb3DQEBCwUAA4ICAQCwo/i1CwgqLm70yoGezX2c7ZrcN146iBgi
wRm93nzKYeOquVchAOWbXp+H8zC1ba9Up+S++RaLqq/2BIIhgo/UC8LIcgKgpXhT
ov6ZTQUVIg7PKenQgqbhqutnoRFn160/fIjlJa0TXsxI+1KhaERaL0ZVDFESndWG
+9CItNhkR1TErdrpNQ5/rVVIVtkBW4UijGfEtHjhjHLDJmKhmrZrmd/3a2drPwgN
0ASkL4zfpN7fyVRm1nFgEK0zQ+9qh7ZtFBK/90Z0V6g1c4dAGM/0bEfOcyBL1JXt
hkztEbcNi0RkE5RX/eAaM+eW32eEZ98eoHsYrILmSMtZEOnt4XeBl35Vr7aNW5Rd
lkeDglYj33oP+PIc8Qpe5cVY4kkz0ruwWGuQ4SG8o1SeP9kHXDh6qDXXawqPNG6E
KssfsMcnCw7VBf57xwUimZAEA+zpjncwqNTpudGbUGATmojCWBJQ3mjb1hcYvpYW
3yUvZEphDZVS3epxnRTaf6FmwUDiuKVE1beK3yB4rUiKjXscDnlkHMqYccKba2RP
nJ6J8rmu8YvQV7VisHuqxMJibYOo9Zl70SQdlGFYE3krS9EpnHJyhhZpqVXY+lc/
zT2R0Ox5vmftyxqXiqsUvjd+XSnn5zdB9KoMv/Lv51JRlVqwQw7bs/dDYS/BgSSe
uP0LPVce0g==
-----END CERTIFICATE-----
