Certificate:
    Data:
        Version: 3 (0x2)
        Serial Number: 75 (0x4b)
        Signature Algorithm: sha256WithRSAEncryption
        Issuer: C=PL, ST=Woj. Mazowieckie, O=((OTRS)) Community Edition, OU=Development, CN=Test CA Intermediate 2/emailAddress=development@otrscommunityedition.com
        Validity
            Not Before: May 15 15:18:45 2022 GMT
            Not After : May 12 15:18:45 2032 GMT
        Subject: C=PL, ST=Woj. Mazowieckie, O=((OTRS)) Community Edition, OU=Development, CN=User 1/emailAddress=test-1@otrscommunityedition.com
        Subject Public Key Info:
            Public Key Algorithm: rsaEncryption
                RSA Public-Key: (4096 bit)
                Modulus:
                    00:d1:09:e3:e2:20:ce:2f:a7:7e:f8:f6:c7:f5:5c:
                    0a:80:1d:5b:7e:f9:5a:ab:34:a0:b4:05:ec:80:f2:
                    d8:97:dd:4a:31:c1:b9:ec:b4:1a:29:02:cf:3f:26:
                    0a:a1:20:05:88:e3:b1:10:25:f3:85:82:fa:3e:de:
                    34:0e:ee:97:81:71:a1:7f:97:8f:19:af:0c:f0:e9:
                    b7:d8:ec:a0:de:b0:a6:62:14:63:34:a6:db:57:70:
                    18:f1:39:46:20:e9:bc:18:8f:61:fa:21:ac:22:5f:
                    e0:ac:67:1b:fd:69:7b:06:81:a3:40:e2:d8:cd:5c:
                    9b:2f:81:e3:2a:38:ea:67:d0:0d:28:1d:63:ee:26:
                    1b:80:64:2b:96:ce:ed:68:fc:eb:2c:73:8b:20:7b:
                    4b:d1:41:18:e1:dd:0c:d4:7a:a7:eb:df:b0:9d:27:
                    39:ce:42:ee:ba:09:63:8f:2f:1d:cb:cb:d6:e6:c6:
                    21:71:04:36:dc:d6:12:c9:a6:98:2f:fd:d5:81:98:
                    dd:51:f4:e6:ba:e7:65:af:b0:e3:ed:7e:3e:2d:54:
                    7f:ec:8a:13:b7:af:24:85:0f:ef:a3:a9:cf:18:c8:
                    c3:94:a8:61:01:9f:e7:ca:45:59:c2:be:7d:1d:8b:
                    a4:dd:f8:da:11:ad:5e:61:12:14:8f:36:21:5c:09:
                    d1:ac:46:9e:cb:27:6d:97:59:e8:3f:80:62:54:ea:
                    21:18:68:a3:3c:b7:37:69:06:bd:4d:dd:fb:48:ab:
                    05:ad:8a:b4:c0:34:bf:c4:79:30:a9:2b:72:cf:52:
                    22:47:05:12:a1:f7:b3:4d:93:c9:11:55:4b:3a:8b:
                    ea:6d:84:93:b7:0d:c1:3d:97:3d:59:83:9c:59:b6:
                    e1:88:07:5f:cf:cd:66:65:2e:66:35:02:c3:2c:05:
                    70:5e:42:95:11:25:f1:9b:4b:70:fc:ea:65:0b:7c:
                    57:39:3b:d6:f2:34:1c:97:2b:a4:99:5b:3b:49:ae:
                    5b:6a:29:9a:2d:11:47:d4:04:61:6c:bd:b6:41:02:
                    14:c7:89:0c:75:68:9c:b2:83:86:ed:2f:7a:c7:71:
                    cd:aa:cc:cf:dc:ab:8f:6f:f3:94:74:0d:26:af:75:
                    f4:b4:9b:20:62:7f:86:ce:26:89:0a:51:92:f9:ba:
                    93:ae:fc:56:c2:4e:2d:0f:40:e6:e2:80:e9:5b:ef:
                    cc:6d:9f:d8:35:91:19:37:1c:32:0d:fb:c0:ab:fc:
                    c5:5d:96:b1:8a:56:10:41:45:d6:59:83:14:40:b8:
                    b2:9c:bf:77:5f:67:d7:9e:c2:50:a1:54:7f:28:9f:
                    71:c5:39:a9:3c:4e:e7:e6:c1:fd:18:a4:0a:de:26:
                    a2:39:05
                Exponent: 65537 (0x10001)
        X509v3 extensions:
            X509v3 Basic Constraints: critical
                CA:TRUE
            X509v3 Subject Key Identifier: 
                EB:C2:F3:9E:EA:E8:42:E5:DB:7F:50:E4:AC:91:33:95:FD:F4:86:94
            X509v3 Authority Key Identifier: 
                keyid:88:1B:16:D2:11:42:5F:A1:9B:3A:C7:36:3C:14:81:10:0D:DE:83:99
                DirName:/C=PL/ST=Woj. Mazowieckie/O=((OTRS)) Community Edition/OU=Development/CN=Test CA Intermediate 1/emailAddress=development@otrscommunityedition.com
                serial:1E

    Signature Algorithm: sha256WithRSAEncryption
         58:9e:41:eb:03:cf:a2:2d:25:c3:2d:97:4c:8a:41:bf:0f:e0:
         fa:c4:14:e8:61:6e:02:ff:9d:c4:f5:c0:98:f1:78:07:36:15:
         c0:92:27:6e:4d:f0:8e:e4:f3:aa:b0:0c:c6:76:71:1c:8d:c0:
         b9:0c:4b:d3:9f:5e:d4:67:a8:3e:83:b0:1f:71:98:a8:7a:7c:
         3a:51:f2:fc:0e:f2:bf:80:b4:dc:78:9a:6f:8c:b6:ac:f1:b7:
         2b:5f:c0:4b:ca:d5:29:39:2d:6b:e8:da:6e:cc:9a:38:60:d4:
         66:5c:d9:71:50:90:d9:30:89:fc:09:e6:15:43:bc:77:47:72:
         ed:f0:5f:37:38:ab:cc:59:e1:36:9c:0e:fb:b7:18:9d:99:ad:
         4d:c0:32:70:11:4b:06:02:96:74:2f:f7:4e:f2:3a:a6:1b:a1:
         50:23:94:bc:4b:36:d9:b8:16:99:95:14:76:e0:c0:cc:d0:cb:
         a9:57:04:d8:3d:fd:83:c1:c4:c0:fa:c0:e7:4a:2b:89:c1:94:
         88:66:14:91:12:28:6b:d4:13:24:01:7a:fc:26:11:ff:b8:ce:
         7b:f2:d3:45:40:06:a3:de:cc:3e:3f:9d:ce:d0:8d:31:47:24:
         25:52:1b:cd:a7:39:88:c7:c8:4e:f5:4b:52:0b:7f:73:29:a5:
         db:2a:60:aa:77:17:f3:da:dc:45:8e:b4:75:76:33:ed:6a:6f:
         04:d0:e0:a5:43:5b:7c:73:85:d7:92:ea:03:02:62:e5:d7:42:
         58:ed:ca:f8:15:db:3a:e6:66:cb:e7:49:78:c8:d4:46:eb:35:
         80:03:04:d9:d1:6a:9a:c1:c3:36:9d:8c:0c:8c:10:8f:f5:b1:
         bf:11:67:f7:55:9f:9c:be:c2:57:f9:1e:c3:45:fc:b3:fb:d7:
         9f:87:47:9c:b8:b1:30:45:4b:78:6b:bc:55:8f:eb:0a:1c:9f:
         08:b5:9c:3e:2e:d6:61:a3:60:05:09:01:b8:01:92:6f:d9:bb:
         f8:d5:c8:fe:94:eb:61:e2:30:71:e5:b2:ea:23:5a:c2:64:65:
         6f:7f:40:78:6c:0b:ed:d5:93:ee:ff:37:df:76:eb:05:b5:d6:
         6b:11:19:b7:b3:56:a9:d5:8b:c6:41:d7:96:67:22:29:0c:ee:
         69:5b:ca:2a:5e:19:25:76:e8:3e:38:64:cb:f0:96:54:e4:dc:
         ca:2b:9b:d7:7d:76:f8:74:f0:9b:9e:b4:8b:5a:f9:fe:09:99:
         41:8e:b4:86:d1:37:d6:b1:0c:26:3b:3e:d6:9e:85:3b:54:ad:
         e9:15:80:02:11:12:04:1e:57:a4:f9:6f:3d:dc:00:9c:ac:81:
         ac:f6:87:c8:e8:ba:23:3d
-----BEGIN CERTIFICATE-----
MIIG+TCCBOGgAwIBAgIBSzANBgkqhkiG9w0BAQsFADCBuTELMAkGA1UEBhMCUEwx
GTAXBgNVBAgMEFdvai4gTWF6b3dpZWNraWUxIzAhBgNVBAoMGigoT1RSUykpIENv
bW11bml0eSBFZGl0aW9uMRQwEgYDVQQLDAtEZXZlbG9wbWVudDEfMB0GA1UEAwwW
VGVzdCBDQSBJbnRlcm1lZGlhdGUgMjEzMDEGCSqGSIb3DQEJARYkZGV2ZWxvcG1l
bnRAb3Ryc2NvbW11bml0eWVkaXRpb24uY29tMB4XDTIyMDUxNTE1MTg0NVoXDTMy
MDUxMjE1MTg0NVowgaQxCzAJBgNVBAYTAlBMMRkwFwYDVQQIDBBXb2ouIE1hem93
aWVja2llMSMwIQYDVQQKDBooKE9UUlMpKSBDb21tdW5pdHkgRWRpdGlvbjEUMBIG
A1UECwwLRGV2ZWxvcG1lbnQxDzANBgNVBAMMBlVzZXIgMTEuMCwGCSqGSIb3DQEJ
ARYfdGVzdC0xQG90cnNjb21tdW5pdHllZGl0aW9uLmNvbTCCAiIwDQYJKoZIhvcN
AQEBBQADggIPADCCAgoCggIBANEJ4+Igzi+nfvj2x/VcCoAdW375Wqs0oLQF7IDy
2JfdSjHBuey0GikCzz8mCqEgBYjjsRAl84WC+j7eNA7ul4FxoX+XjxmvDPDpt9js
oN6wpmIUYzSm21dwGPE5RiDpvBiPYfohrCJf4KxnG/1pewaBo0Di2M1cmy+B4yo4
6mfQDSgdY+4mG4BkK5bO7Wj86yxziyB7S9FBGOHdDNR6p+vfsJ0nOc5C7roJY48v
HcvL1ubGIXEENtzWEsmmmC/91YGY3VH05rrnZa+w4+1+Pi1Uf+yKE7evJIUP76Op
zxjIw5SoYQGf58pFWcK+fR2LpN342hGtXmESFI82IVwJ0axGnssnbZdZ6D+AYlTq
IRhoozy3N2kGvU3d+0irBa2KtMA0v8R5MKkrcs9SIkcFEqH3s02TyRFVSzqL6m2E
k7cNwT2XPVmDnFm24YgHX8/NZmUuZjUCwywFcF5ClREl8ZtLcPzqZQt8Vzk71vI0
HJcrpJlbO0muW2opmi0RR9QEYWy9tkECFMeJDHVonLKDhu0vesdxzarMz9yrj2/z
lHQNJq919LSbIGJ/hs4miQpRkvm6k678VsJOLQ9A5uKA6VvvzG2f2DWRGTccMg37
wKv8xV2WsYpWEEFF1lmDFEC4spy/d19n157CUKFUfyifccU5qTxO5+bB/RikCt4m
ojkFAgMBAAGjggEdMIIBGTAPBgNVHRMBAf8EBTADAQH/MB0GA1UdDgQWBBTrwvOe
6uhC5dt/UOSskTOV/fSGlDCB5gYDVR0jBIHeMIHbgBSIGxbSEUJfoZs6xzY8FIEQ
Dd6DmaGBv6SBvDCBuTELMAkGA1UEBhMCUEwxGTAXBgNVBAgMEFdvai4gTWF6b3dp
ZWNraWUxIzAhBgNVBAoMGigoT1RSUykpIENvbW11bml0eSBFZGl0aW9uMRQwEgYD
VQQLDAtEZXZlbG9wbWVudDEfMB0GA1UEAwwWVGVzdCBDQSBJbnRlcm1lZGlhdGUg
MTEzMDEGCSqGSIb3DQEJARYkZGV2ZWxvcG1lbnRAb3Ryc2NvbW11bml0eWVkaXRp
b24uY29tggEeMA0GCSqGSIb3DQEBCwUAA4ICAQBYnkHrA8+iLSXDLZdMikG/D+D6
xBToYW4C/53E9cCY8XgHNhXAkiduTfCO5POqsAzGdnEcjcC5DEvTn17UZ6g+g7Af
cZioenw6UfL8DvK/gLTceJpvjLas8bcrX8BLytUpOS1r6NpuzJo4YNRmXNlxUJDZ
MIn8CeYVQ7x3R3Lt8F83OKvMWeE2nA77txidma1NwDJwEUsGApZ0L/dO8jqmG6FQ
I5S8SzbZuBaZlRR24MDM0MupVwTYPf2DwcTA+sDnSiuJwZSIZhSREihr1BMkAXr8
JhH/uM578tNFQAaj3sw+P53O0I0xRyQlUhvNpzmIx8hO9UtSC39zKaXbKmCqdxfz
2txFjrR1djPtam8E0OClQ1t8c4XXkuoDAmLl10JY7cr4Fds65mbL50l4yNRG6zWA
AwTZ0WqawcM2nYwMjBCP9bG/EWf3VZ+cvsJX+R7DRfyz+9efh0ecuLEwRUt4a7xV
j+sKHJ8ItZw+LtZho2AFCQG4AZJv2bv41cj+lOth4jBx5bLqI1rCZGVvf0B4bAvt
1ZPu/zffdusFtdZrERm3s1ap1YvGQdeWZyIpDO5pW8oqXhkldug+OGTL8JZU5NzK
K5vXfXb4dPCbnrSLWvn+CZlBjrSG0TfWsQwmOz7WnoU7VK3pFYACERIEHlek+W89
3ACcrIGs9ofI6LojPQ==
-----END CERTIFICATE-----
