Certificate:
    Data:
        Version: 3 (0x2)
        Serial Number: 38 (0x26)
        Signature Algorithm: sha256WithRSAEncryption
        Issuer: C=PL, ST=Woj. Mazowieckie, L=Warsaw, O=((OTRS)) Community Edition, OU=Development, CN=Test CA Root/emailAddress=development@otrscommunityedition.com
        Validity
            Not Before: May 15 15:18:44 2022 GMT
            Not After : May 12 15:18:44 2032 GMT
        Subject: C=PL, ST=Woj. Mazowieckie, O=((OTRS)) Community Edition, OU=Development, CN=Test CA Intermediate 1/emailAddress=development@otrscommunityedition.com
        Subject Public Key Info:
            Public Key Algorithm: rsaEncryption
                RSA Public-Key: (4096 bit)
                Modulus:
                    00:cc:79:82:1d:c2:fc:c6:cd:89:6a:a1:d5:f8:26:
                    74:19:56:80:4f:f8:26:67:f4:a5:91:db:c0:42:a0:
                    72:54:12:a0:a2:51:cd:01:7d:6a:15:f2:08:da:c6:
                    77:af:77:e4:f8:8a:ae:c0:15:08:5b:1c:87:7e:40:
                    81:a4:16:28:84:49:f5:04:83:1e:28:ef:c4:d6:a2:
                    dc:8b:95:2c:4c:96:a4:68:4f:e8:7c:e0:d1:9f:42:
                    94:7f:8a:e1:62:f6:fb:44:e6:5e:9c:0f:ad:9e:f7:
                    9c:d5:5b:51:62:bc:e2:a9:0b:e0:6c:1d:8e:8f:e9:
                    c5:d7:a8:bf:1d:06:f4:5a:c5:4a:ec:ba:ed:28:b4:
                    95:eb:7d:a5:dd:4a:20:a9:81:3e:9d:0b:ca:0e:46:
                    38:a6:28:a0:41:d2:dc:5b:e6:03:b3:3e:2c:2e:78:
                    2f:85:97:45:53:f3:0f:77:84:09:e0:8a:fc:d7:68:
                    b5:66:36:8c:70:ca:d0:90:5c:02:ce:e2:4d:f5:eb:
                    ba:5f:ff:cc:23:cd:a1:12:6f:39:60:2b:20:f9:ec:
                    86:cd:fc:ab:c1:1e:08:28:43:52:1e:54:78:a0:79:
                    4a:a9:1d:1f:18:2e:c2:46:60:6f:8d:65:fd:bf:ff:
                    6f:a0:e9:17:62:31:8d:44:a9:4a:a0:52:87:ca:d9:
                    33:94:a6:6c:ae:7c:80:ed:00:bc:81:cb:d2:3a:45:
                    48:50:ba:74:24:5d:e7:e1:87:a9:0a:5f:a2:d6:c7:
                    93:c1:2c:02:87:bb:32:17:ab:ed:69:d1:58:6d:71:
                    c2:ca:3d:bf:88:9e:e4:2a:5b:4e:01:32:62:65:3f:
                    be:a0:5c:f4:0a:b2:c8:35:65:58:ab:7f:ba:0c:e8:
                    5a:8b:75:8b:e1:af:51:f2:a2:fc:d2:cb:fd:8c:4e:
                    b1:d0:d1:40:59:d8:f0:9f:1b:9d:23:01:34:b0:bb:
                    0b:56:e0:ce:e5:8b:cc:c0:2d:8e:a6:17:a4:be:24:
                    aa:d1:7d:0b:e8:fc:6d:fc:45:d0:0c:94:1f:0e:d3:
                    53:12:05:47:a6:6b:8f:21:65:ec:67:13:4f:67:6f:
                    18:7c:5e:6a:4d:9f:c3:79:4f:b2:c9:f8:18:23:d5:
                    06:10:55:a6:9f:3d:b8:db:c9:6f:4e:d7:6d:fa:67:
                    e0:a5:12:f2:2a:74:a5:fb:d7:25:f4:c2:ad:71:66:
                    b5:b4:99:df:95:1a:10:ef:6e:ba:61:7e:1b:88:fa:
                    f5:c0:65:ad:e2:4d:b6:cc:43:43:48:49:a5:6d:47:
                    26:6c:00:69:47:03:4e:fa:2a:08:51:1c:31:3e:06:
                    3e:9f:76:f5:96:d4:29:ad:67:6d:99:ea:22:33:8b:
                    f2:2b:61
                Exponent: 65537 (0x10001)
        X509v3 extensions:
            X509v3 Basic Constraints: critical
                CA:TRUE
            X509v3 Subject Key Identifier: 
                CE:F5:5D:6E:85:B9:AF:89:2A:A4:BC:11:4A:13:62:48:5D:FB:34:AA
            X509v3 Authority Key Identifier: 
                keyid:0C:B0:B1:31:87:4A:4B:52:7C:C7:97:21:1F:83:4A:8A:98:34:A4:BE
                DirName:/C=PL/ST=Woj. Mazowieckie/L=Warsaw/O=((OTRS)) Community Edition/OU=Development/CN=Test CA Root/emailAddress=development@otrscommunityedition.com
                serial:4D:0A:6A:C3:21:D1:8F:CC:79:45:A9:22:79:D4:56:DF:40:5E:88:82

    Signature Algorithm: sha256WithRSAEncryption
         3c:ab:54:46:fb:f7:98:19:6a:8d:12:20:3a:96:5c:c3:79:25:
         75:60:12:43:41:9c:49:ab:a9:c6:fd:7d:0f:6f:60:92:6f:07:
         6b:44:33:4c:0a:06:bc:8e:99:8e:eb:75:68:72:2d:f7:61:6b:
         02:23:9c:28:c0:1e:fa:2c:4d:5a:68:9e:2f:bb:8e:3d:52:d4:
         1a:d7:37:5b:17:76:27:c9:bf:f5:a1:5d:77:a7:e5:d9:11:0b:
         8f:6b:cc:18:92:4c:41:81:78:40:0b:90:f1:21:94:10:55:2e:
         19:86:0c:d8:e2:8a:96:69:9a:ca:a2:f5:71:31:51:7e:dc:cb:
         3a:f2:87:7d:91:4b:d9:90:0a:42:e8:35:72:57:a8:ab:17:2d:
         78:15:6d:3c:cd:46:7f:93:c4:e2:fa:c8:fd:8d:44:d7:e2:98:
         1f:b6:2c:36:63:35:5c:48:f7:93:62:78:75:2c:17:0e:61:97:
         7d:03:2c:85:4b:c3:66:91:a3:e7:ff:df:eb:3f:28:de:2b:d8:
         6f:01:2e:4c:b5:40:44:51:29:de:db:68:22:4b:7b:ff:1a:35:
         c9:81:ae:85:b0:70:d1:82:5c:72:48:a4:08:b3:d5:a6:58:f4:
         60:36:88:3e:c5:a6:bf:2d:4d:f0:80:fc:b7:02:ba:38:b5:67:
         ce:6b:a8:c7:1d:5e:73:e5:2d:f4:91:36:8f:41:b7:1a:80:fa:
         c5:e2:0b:47:e0:38:35:37:12:c8:da:21:05:66:c6:27:53:0e:
         03:f1:6e:44:4f:44:ac:73:5b:1c:48:cc:7e:04:27:4b:20:2e:
         58:ca:f6:34:82:a9:f5:db:2b:8b:f0:95:9d:a7:83:4a:2f:18:
         bb:e6:d6:2a:50:28:00:69:4d:3a:81:68:92:d7:3d:d1:bf:e8:
         40:5e:7f:59:0b:04:fd:49:e6:cb:00:fe:f0:9f:4c:e0:a6:fc:
         dc:f5:a6:53:2d:ac:63:7c:f8:c1:fe:a1:40:30:17:04:1d:44:
         71:f3:6a:c1:f9:8b:07:df:1b:dc:45:dc:b2:9c:71:91:2a:b0:
         9c:0b:3c:ba:ec:b5:dc:87:78:45:f9:b5:24:21:a1:a1:3a:5f:
         92:f8:f7:4f:c1:4e:74:1c:d0:19:f6:a6:96:7b:7b:b1:41:b6:
         d1:ec:21:7d:2e:1f:f7:00:15:da:ce:f2:80:21:5f:8d:64:5c:
         13:80:ec:7a:46:a4:22:a2:61:c7:98:26:14:24:26:c7:4c:a7:
         e9:61:43:72:fa:56:4e:9d:8f:80:ba:71:d6:74:62:80:e0:11:
         bb:09:e6:c8:59:40:af:42:de:8b:ee:9c:2e:75:89:3b:c4:55:
         43:0a:06:71:15:67:6f:06
-----BEGIN CERTIFICATE-----
MIIHMDCCBRigAwIBAgIBJjANBgkqhkiG9w0BAQsFADCBwDELMAkGA1UEBhMCUEwx
GTAXBgNVBAgMEFdvai4gTWF6b3dpZWNraWUxDzANBgNVBAcMBldhcnNhdzEjMCEG
A1UECgwaKChPVFJTKSkgQ29tbXVuaXR5IEVkaXRpb24xFDASBgNVBAsMC0RldmVs
b3BtZW50MRUwEwYDVQQDDAxUZXN0IENBIFJvb3QxMzAxBgkqhkiG9w0BCQEWJGRl
dmVsb3BtZW50QG90cnNjb21tdW5pdHllZGl0aW9uLmNvbTAeFw0yMjA1MTUxNTE4
NDRaFw0zMjA1MTIxNTE4NDRaMIG5MQswCQYDVQQGEwJQTDEZMBcGA1UECAwQV29q
LiBNYXpvd2llY2tpZTEjMCEGA1UECgwaKChPVFJTKSkgQ29tbXVuaXR5IEVkaXRp
b24xFDASBgNVBAsMC0RldmVsb3BtZW50MR8wHQYDVQQDDBZUZXN0IENBIEludGVy
bWVkaWF0ZSAxMTMwMQYJKoZIhvcNAQkBFiRkZXZlbG9wbWVudEBvdHJzY29tbXVu
aXR5ZWRpdGlvbi5jb20wggIiMA0GCSqGSIb3DQEBAQUAA4ICDwAwggIKAoICAQDM
eYIdwvzGzYlqodX4JnQZVoBP+CZn9KWR28BCoHJUEqCiUc0BfWoV8gjaxnevd+T4
iq7AFQhbHId+QIGkFiiESfUEgx4o78TWotyLlSxMlqRoT+h84NGfQpR/iuFi9vtE
5l6cD62e95zVW1FivOKpC+BsHY6P6cXXqL8dBvRaxUrsuu0otJXrfaXdSiCpgT6d
C8oORjimKKBB0txb5gOzPiwueC+Fl0VT8w93hAngivzXaLVmNoxwytCQXALO4k31
67pf/8wjzaESbzlgKyD57IbN/KvBHggoQ1IeVHigeUqpHR8YLsJGYG+NZf2//2+g
6RdiMY1EqUqgUofK2TOUpmyufIDtALyBy9I6RUhQunQkXefhh6kKX6LWx5PBLAKH
uzIXq+1p0VhtccLKPb+InuQqW04BMmJlP76gXPQKssg1ZVirf7oM6FqLdYvhr1Hy
ovzSy/2MTrHQ0UBZ2PCfG50jATSwuwtW4M7li8zALY6mF6S+JKrRfQvo/G38RdAM
lB8O01MSBUema48hZexnE09nbxh8XmpNn8N5T7LJ+Bgj1QYQVaafPbjbyW9O1236
Z+ClEvIqdKX71yX0wq1xZrW0md+VGhDvbrphfhuI+vXAZa3iTbbMQ0NISaVtRyZs
AGlHA076KghRHDE+Bj6fdvWW1CmtZ22Z6iIzi/IrYQIDAQABo4IBODCCATQwDwYD
VR0TAQH/BAUwAwEB/zAdBgNVHQ4EFgQUzvVdboW5r4kqpLwRShNiSF37NKowggEA
BgNVHSMEgfgwgfWAFAywsTGHSktSfMeXIR+DSoqYNKS+oYHGpIHDMIHAMQswCQYD
VQQGEwJQTDEZMBcGA1UECAwQV29qLiBNYXpvd2llY2tpZTEPMA0GA1UEBwwGV2Fy
c2F3MSMwIQYDVQQKDBooKE9UUlMpKSBDb21tdW5pdHkgRWRpdGlvbjEUMBIGA1UE
CwwLRGV2ZWxvcG1lbnQxFTATBgNVBAMMDFRlc3QgQ0EgUm9vdDEzMDEGCSqGSIb3
DQEJARYkZGV2ZWxvcG1lbnRAb3Ryc2NvbW11bml0eWVkaXRpb24uY29tghRNCmrD
IdGPzHlFqSJ51FbfQF6IgjANBgkqhkiG9w0BAQsFAAOCAgEAPKtURvv3mBlqjRIg
OpZcw3kldWASQ0GcSaupxv19D29gkm8Ha0QzTAoGvI6Zjut1aHIt92FrAiOcKMAe
+ixNWmieL7uOPVLUGtc3Wxd2J8m/9aFdd6fl2RELj2vMGJJMQYF4QAuQ8SGUEFUu
GYYM2OKKlmmayqL1cTFRftzLOvKHfZFL2ZAKQug1cleoqxcteBVtPM1Gf5PE4vrI
/Y1E1+KYH7YsNmM1XEj3k2J4dSwXDmGXfQMshUvDZpGj5//f6z8o3ivYbwEuTLVA
RFEp3ttoIkt7/xo1yYGuhbBw0YJcckikCLPVplj0YDaIPsWmvy1N8ID8twK6OLVn
zmuoxx1ec+Ut9JE2j0G3GoD6xeILR+A4NTcSyNohBWbGJ1MOA/FuRE9ErHNbHEjM
fgQnSyAuWMr2NIKp9dsri/CVnaeDSi8Yu+bWKlAoAGlNOoFoktc90b/oQF5/WQsE
/UnmywD+8J9M4Kb83PWmUy2sY3z4wf6hQDAXBB1EcfNqwfmLB98b3EXcspxxkSqw
nAs8uuy13Id4Rfm1JCGhoTpfkvj3T8FOdBzQGfamlnt7sUG20ewhfS4f9wAV2s7y
gCFfjWRcE4DsekakIqJhx5gmFCQmx0yn6WFDcvpWTp2PgLpx1nRigOARuwnmyFlA
r0Lei+6cLnWJO8RVQwoGcRVnbwY=
-----END CERTIFICATE-----
